target datalayout = "e-m:e-p270:32:32-p271:32:32-p272:64:64-i64:64-i128:128-f80:128-n8:16:32:64-S128"
target triple = "x86_64-unknown-linux-gnu"

%"class.icu_75::Locale" = type <{ %"class.icu_75::UObject", [12 x i8], [6 x i8], [4 x i8], [2 x i8], i32, [4 x i8], ptr, [157 x i8], [3 x i8], ptr, i8, [7 x i8] }>
%"class.icu_75::UObject" = type { ptr }

; Function Attrs: mustprogress uwtable
define noundef i32 @_ZNK6icu_756Locale8hashCodeEv(ptr noundef nonnull align 8 dereferenceable(217) %this) #1 align 2 {
entry:
  %this.addr = alloca ptr, align 8
  store ptr %this, ptr %this.addr, align 8
  %this1 = load ptr, ptr %this.addr, align 8
  %fullName = getelementptr inbounds %"class.icu_75::Locale", ptr %this1, i32 0, i32 7
  %0 = load ptr, ptr %fullName, align 8
  %fullName2 = getelementptr inbounds %"class.icu_75::Locale", ptr %this1, i32 0, i32 7
  %1 = load ptr, ptr %fullName2, align 8
  %call = call i64 @strlen(ptr noundef %1) #13
  %conv = trunc i64 %call to i32
  %call3 = call i32 @ustr_hashCharsN_75(ptr noundef %0, i32 noundef %conv)
  ret i32 %call3
}