; Function Attrs: mustprogress uwtable
define noundef i32 @_ZNK6icu_756Locale8hashCodeEv(ptr nocapture noundef nonnull readonly align 8 dereferenceable(217) %this) local_unnamed_addr #1 align 2 {
entry:
  %fullName = getelementptr inbounds i8, ptr %this, i64 40
  %0 = load ptr, ptr %fullName, align 8
  %call = tail call i64 @strlen(ptr noundef nonnull dereferenceable(1) %0) #23
  %conv = trunc i64 %call to i32
  %call3 = tail call i32 @ustr_hashCharsN_75(ptr noundef %0, i32 noundef %conv)
  ret i32 %call3
}